target datalayout = "e-m:e-p270:32:32-p271:32:32-p272:64:64-i64:64-i128:128-f80:128-n8:16:32:64-S128"
target triple = "x86_64-pc-linux-gnu"

@hf_tn3270_field_attribute = internal global i32 0, align 4
@hf_tn3270_attribute_type = internal global i32 0, align 4
@hf_tn3270_extended_highlighting = internal global i32 0, align 4
@hf_tn3270_color = internal global i32 0, align 4
@hf_tn3270_character_set = internal global i32 0, align 4
@hf_tn3270_field_outlining = internal global i32 0, align 4
@hf_tn3270_transparency = internal global i32 0, align 4
@hf_tn3270_all_character_attributes = internal global i32 0, align 4
@ett_tn3270_field_attribute = internal global i32 0, align 4
@ett_tn3270_field_validation = internal global i32 0, align 4
@.str.954 = private unnamed_addr constant [5 x i8] c"None\00", align 1
@dissect_3270_field_attribute.byte = internal constant [7 x ptr] [ptr @hf_tn3270_fa_graphic_convert, ptr @hf_tn3270_fa_protected, ptr @hf_tn3270_fa_numeric, ptr @hf_tn3270_fa_display, ptr @hf_tn3270_fa_reserved, ptr @hf_tn3270_fa_modified, ptr null], align 16
@dissect_3270_field_validation.byte = internal constant [4 x ptr] [ptr @hf_tn3270_field_validation_mandatory_fill, ptr @hf_tn3270_field_validation_mandatory_entry, ptr @hf_tn3270_field_validation_trigger, ptr null], align 16
@.str.955 = private unnamed_addr constant [19 x i8] c"Field Validation: \00", align 1

; Function Attrs: null_pointer_is_valid sspstrong uwtable
define internal i32 @dissect_3270_field_validation(ptr noundef %0, ptr noundef %1, i32 noundef %2) #0 {
  %4 = alloca ptr, align 8
  %5 = alloca ptr, align 8
  %6 = alloca i32, align 4
  %7 = alloca i32, align 4
  store ptr %0, ptr %4, align 8
  store ptr %1, ptr %5, align 8
  store i32 %2, ptr %6, align 4
  call void @llvm.lifetime.start.p0(i64 4, ptr %7) #6
  %8 = load i32, ptr %6, align 4
  store i32 %8, ptr %7, align 4
  %9 = load ptr, ptr %4, align 8
  %10 = load ptr, ptr %5, align 8
  %11 = load i32, ptr @ett_tn3270_field_validation, align 4
  %12 = call ptr @proto_tree_add_bitmask_text(ptr noundef %9, ptr noundef %10, i32 noundef 1, i32 noundef 1, ptr noundef @.str.955, ptr noundef @.str.954, i32 noundef %11, ptr noundef @dissect_3270_field_validation.byte, i32 noundef 0, i32 noundef 0)
  %13 = load i32, ptr %6, align 4
  %14 = add i32 %13, 1
  store i32 %14, ptr %6, align 4
  %15 = load i32, ptr %6, align 4
  %16 = load i32, ptr %7, align 4
  %17 = sub i32 %15, %16
  call void @llvm.lifetime.end.p0(i64 4, ptr %7) #6
  ret i32 %17
}

; Function Attrs: null_pointer_is_valid sspstrong uwtable
define internal i32 @dissect_3270_field_attribute(ptr noundef %0, ptr noundef %1, i32 noundef %2) #0 {
  %4 = alloca ptr, align 8
  %5 = alloca ptr, align 8
  %6 = alloca i32, align 4
  %7 = alloca i32, align 4
  store ptr %0, ptr %4, align 8
  store ptr %1, ptr %5, align 8
  store i32 %2, ptr %6, align 4
  call void @llvm.lifetime.start.p0(i64 4, ptr %7) #6
  %8 = load i32, ptr %6, align 4
  store i32 %8, ptr %7, align 4
  %9 = load ptr, ptr %4, align 8
  %10 = load ptr, ptr %5, align 8
  %11 = load i32, ptr %6, align 4
  %12 = load i32, ptr @hf_tn3270_field_attribute, align 4
  %13 = load i32, ptr @ett_tn3270_field_attribute, align 4
  %14 = call ptr @proto_tree_add_bitmask(ptr noundef %9, ptr noundef %10, i32 noundef %11, i32 noundef %12, i32 noundef %13, ptr noundef @dissect_3270_field_attribute.byte, i32 noundef 0)
  %15 = load i32, ptr %6, align 4
  %16 = add i32 %15, 1
  store i32 %16, ptr %6, align 4
  %17 = load i32, ptr %6, align 4
  %18 = load i32, ptr %7, align 4
  %19 = sub i32 %17, %18
  call void @llvm.lifetime.end.p0(i64 4, ptr %7) #6
  ret i32 %19
}

; Function Attrs: null_pointer_is_valid sspstrong uwtable
define internal i32 @dissect_field_attribute_pair(ptr noundef %0, ptr noundef %1, i32 noundef %2) #0 {
  %4 = alloca ptr, align 8
  %5 = alloca ptr, align 8
  %6 = alloca i32, align 4
  %7 = alloca i32, align 4
  %8 = alloca i32, align 4
  store ptr %0, ptr %4, align 8
  store ptr %1, ptr %5, align 8
  store i32 %2, ptr %6, align 4
  call void @llvm.lifetime.start.p0(i64 4, ptr %7) #6
  %9 = load i32, ptr %6, align 4
  store i32 %9, ptr %7, align 4
  call void @llvm.lifetime.start.p0(i64 4, ptr %8) #6
  %10 = load ptr, ptr %5, align 8
  %11 = load i32, ptr %6, align 4
  %12 = call zeroext i8 @tvb_get_uint8(ptr noundef %10, i32 noundef %11)
  %13 = zext i8 %12 to i32
  store i32 %13, ptr %8, align 4
  %14 = load ptr, ptr %4, align 8
  %15 = load i32, ptr @hf_tn3270_attribute_type, align 4
  %16 = load ptr, ptr %5, align 8
  %17 = load i32, ptr %6, align 4
  %18 = call ptr @proto_tree_add_item(ptr noundef %14, i32 noundef %15, ptr noundef %16, i32 noundef %17, i32 noundef 1, i32 noundef 0)
  %19 = load i32, ptr %6, align 4
  %20 = add i32 %19, 1
  store i32 %20, ptr %6, align 4
  %21 = load i32, ptr %8, align 4
  switch i32 %21, label %84 [
    i32 0, label %22
    i32 192, label %30
    i32 65, label %37
    i32 66, label %45
    i32 69, label %45
    i32 67, label %53
    i32 194, label %61
    i32 70, label %69
    i32 193, label %77
  ]

22:                                               ; preds = %3
  %23 = load ptr, ptr %4, align 8
  %24 = load i32, ptr @hf_tn3270_all_character_attributes, align 4
  %25 = load ptr, ptr %5, align 8
  %26 = load i32, ptr %6, align 4
  %27 = call ptr @proto_tree_add_item(ptr noundef %23, i32 noundef %24, ptr noundef %25, i32 noundef %26, i32 noundef 1, i32 noundef 0)
  %28 = load i32, ptr %6, align 4
  %29 = add i32 %28, 1
  store i32 %29, ptr %6, align 4
  br label %84

30:                                               ; preds = %3
  %31 = load ptr, ptr %4, align 8
  %32 = load ptr, ptr %5, align 8
  %33 = load i32, ptr %6, align 4
  %34 = call i32 @dissect_3270_field_attribute(ptr noundef %31, ptr noundef %32, i32 noundef %33)
  %35 = load i32, ptr %6, align 4
  %36 = add i32 %35, %34
  store i32 %36, ptr %6, align 4
  br label %84

37:                                               ; preds = %3
  %38 = load ptr, ptr %4, align 8
  %39 = load i32, ptr @hf_tn3270_extended_highlighting, align 4
  %40 = load ptr, ptr %5, align 8
  %41 = load i32, ptr %6, align 4
  %42 = call ptr @proto_tree_add_item(ptr noundef %38, i32 noundef %39, ptr noundef %40, i32 noundef %41, i32 noundef 1, i32 noundef 0)
  %43 = load i32, ptr %6, align 4
  %44 = add i32 %43, 1
  store i32 %44, ptr %6, align 4
  br label %84

45:                                               ; preds = %3, %3
  %46 = load ptr, ptr %4, align 8
  %47 = load i32, ptr @hf_tn3270_color, align 4
  %48 = load ptr, ptr %5, align 8
  %49 = load i32, ptr %6, align 4
  %50 = call ptr @proto_tree_add_item(ptr noundef %46, i32 noundef %47, ptr noundef %48, i32 noundef %49, i32 noundef 1, i32 noundef 0)
  %51 = load i32, ptr %6, align 4
  %52 = add i32 %51, 1
  store i32 %52, ptr %6, align 4
  br label %84

53:                                               ; preds = %3
  %54 = load ptr, ptr %4, align 8
  %55 = load i32, ptr @hf_tn3270_character_set, align 4
  %56 = load ptr, ptr %5, align 8
  %57 = load i32, ptr %6, align 4
  %58 = call ptr @proto_tree_add_item(ptr noundef %54, i32 noundef %55, ptr noundef %56, i32 noundef %57, i32 noundef 1, i32 noundef 0)
  %59 = load i32, ptr %6, align 4
  %60 = add i32 %59, 1
  store i32 %60, ptr %6, align 4
  br label %84

61:                                               ; preds = %3
  %62 = load ptr, ptr %4, align 8
  %63 = load i32, ptr @hf_tn3270_field_outlining, align 4
  %64 = load ptr, ptr %5, align 8
  %65 = load i32, ptr %6, align 4
  %66 = call ptr @proto_tree_add_item(ptr noundef %62, i32 noundef %63, ptr noundef %64, i32 noundef %65, i32 noundef 1, i32 noundef 0)
  %67 = load i32, ptr %6, align 4
  %68 = add i32 %67, 1
  store i32 %68, ptr %6, align 4
  br label %84

69:                                               ; preds = %3
  %70 = load ptr, ptr %4, align 8
  %71 = load i32, ptr @hf_tn3270_transparency, align 4
  %72 = load ptr, ptr %5, align 8
  %73 = load i32, ptr %6, align 4
  %74 = call ptr @proto_tree_add_item(ptr noundef %70, i32 noundef %71, ptr noundef %72, i32 noundef %73, i32 noundef 1, i32 noundef 0)
  %75 = load i32, ptr %6, align 4
  %76 = add i32 %75, 1
  store i32 %76, ptr %6, align 4
  br label %84

77:                                               ; preds = %3
  %78 = load ptr, ptr %4, align 8
  %79 = load ptr, ptr %5, align 8
  %80 = load i32, ptr %6, align 4
  %81 = call i32 @dissect_3270_field_validation(ptr noundef %78, ptr noundef %79, i32 noundef %80)
  %82 = load i32, ptr %6, align 4
  %83 = add i32 %82, %81
  store i32 %83, ptr %6, align 4
  br label %84

84:                                               ; preds = %3, %77, %69, %61, %53, %45, %37, %30, %22
  %85 = load i32, ptr %6, align 4
  %86 = load i32, ptr %7, align 4
  %87 = sub i32 %85, %86
  call void @llvm.lifetime.end.p0(i64 4, ptr %8) #6
  call void @llvm.lifetime.end.p0(i64 4, ptr %7) #6
  ret i32 %87
}