; Function Attrs: null_pointer_is_valid sspstrong uwtable
define internal fastcc noundef i32 @dissect_field_attribute_pair(ptr noundef %0, ptr noundef %1, i32 noundef %2) unnamed_addr #0 {
  %4 = tail call zeroext i8 @tvb_get_uint8(ptr noundef %1, i32 noundef %2)
  %5 = load i32, ptr @hf_tn3270_attribute_type, align 4
  %6 = tail call ptr @proto_tree_add_item(ptr noundef %0, i32 noundef %5, ptr noundef %1, i32 noundef %2, i32 noundef 1, i32 noundef 0)
  %7 = add i32 %2, 1
  switch i8 %4, label %41 [
    i8 0, label %8
    i8 -64, label %12
    i8 65, label %17
    i8 66, label %21
    i8 69, label %21
    i8 67, label %25
    i8 -62, label %29
    i8 70, label %33
    i8 -63, label %37
  ]

8:                                                ; preds = %3
  %9 = load i32, ptr @hf_tn3270_all_character_attributes, align 4
  %10 = tail call ptr @proto_tree_add_item(ptr noundef %0, i32 noundef %9, ptr noundef %1, i32 noundef %7, i32 noundef 1, i32 noundef 0)
  %11 = add i32 %2, 2
  br label %41

12:                                               ; preds = %3
  %13 = load i32, ptr @hf_tn3270_field_attribute, align 4
  %14 = load i32, ptr @ett_tn3270_field_attribute, align 4
  %15 = tail call ptr @proto_tree_add_bitmask(ptr noundef %0, ptr noundef %1, i32 noundef %7, i32 noundef %13, i32 noundef %14, ptr noundef nonnull @dissect_3270_field_attribute.byte, i32 noundef 0)
  %16 = add i32 %2, 2
  br label %41

17:                                               ; preds = %3
  %18 = load i32, ptr @hf_tn3270_extended_highlighting, align 4
  %19 = tail call ptr @proto_tree_add_item(ptr noundef %0, i32 noundef %18, ptr noundef %1, i32 noundef %7, i32 noundef 1, i32 noundef 0)
  %20 = add i32 %2, 2
  br label %41

21:                                               ; preds = %3, %3
  %22 = load i32, ptr @hf_tn3270_color, align 4
  %23 = tail call ptr @proto_tree_add_item(ptr noundef %0, i32 noundef %22, ptr noundef %1, i32 noundef %7, i32 noundef 1, i32 noundef 0)
  %24 = add i32 %2, 2
  br label %41

25:                                               ; preds = %3
  %26 = load i32, ptr @hf_tn3270_character_set, align 4
  %27 = tail call ptr @proto_tree_add_item(ptr noundef %0, i32 noundef %26, ptr noundef %1, i32 noundef %7, i32 noundef 1, i32 noundef 0)
  %28 = add i32 %2, 2
  br label %41

29:                                               ; preds = %3
  %30 = load i32, ptr @hf_tn3270_field_outlining, align 4
  %31 = tail call ptr @proto_tree_add_item(ptr noundef %0, i32 noundef %30, ptr noundef %1, i32 noundef %7, i32 noundef 1, i32 noundef 0)
  %32 = add i32 %2, 2
  br label %41

33:                                               ; preds = %3
  %34 = load i32, ptr @hf_tn3270_transparency, align 4
  %35 = tail call ptr @proto_tree_add_item(ptr noundef %0, i32 noundef %34, ptr noundef %1, i32 noundef %7, i32 noundef 1, i32 noundef 0)
  %36 = add i32 %2, 2
  br label %41

37:                                               ; preds = %3
  %38 = load i32, ptr @ett_tn3270_field_validation, align 4
  %39 = tail call ptr @proto_tree_add_bitmask_text(ptr noundef %0, ptr noundef %1, i32 noundef 1, i32 noundef 1, ptr noundef nonnull @.str.955, ptr noundef nonnull @.str.954, i32 noundef %38, ptr noundef nonnull @dissect_3270_field_validation.byte, i32 noundef 0, i32 noundef 0)
  %40 = add i32 %2, 2
  br label %41

41:                                               ; preds = %37, %33, %29, %25, %21, %17, %12, %8, %3
  %.0 = phi i32 [ %7, %3 ], [ %40, %37 ], [ %36, %33 ], [ %32, %29 ], [ %28, %25 ], [ %24, %21 ], [ %20, %17 ], [ %16, %12 ], [ %11, %8 ]
  %42 = sub i32 %.0, %2
  ret i32 %42
}